Certificate:
    Data:
        Version: 3 (0x2)
        Serial Number: 4096 (0x1000)
    Signature Algorithm: sha1WithRSAEncryption
        Issuer: C=ID, ST=DKI Jakarta, L=Jakarta Timur, O=CA Palsu, OU=CA, CN=Root CA
        Validity
            Not Before: Jul 31 04:38:58 2013 GMT
            Not After : Jul 31 04:38:58 2014 GMT
        Subject: CN=sipserver, ST=DKI Jakarta, C=ID/emailAddress=sipserver@yuhuu.com, O=SIP Server, OU=IT
        Subject Public Key Info:
            Public Key Algorithm: rsaEncryption
                Public-Key: (2048 bit)
                Modulus:
                    00:a5:b4:1b:ad:1b:76:00:8e:35:42:e2:b5:92:19:
                    1b:d1:b0:a7:7b:34:00:6b:ae:98:d1:54:de:e3:ca:
                    53:6c:81:78:75:99:03:72:37:7f:4a:ff:7e:3f:9a:
                    96:f0:d9:b8:56:02:81:d7:07:3b:f1:60:dd:13:60:
                    fc:90:81:74:92:c8:dc:01:b7:46:45:22:f0:fd:bc:
                    d3:6b:41:ac:ed:a9:3e:40:18:c7:74:93:ee:b1:65:
                    e4:8c:01:4e:cd:5c:75:33:7e:13:f4:f7:a3:31:2a:
                    04:96:72:47:bb:56:48:f6:2a:38:7f:22:47:57:e0:
                    c9:80:21:b8:f0:e6:b2:9e:6c:35:b0:16:35:36:83:
                    4d:a8:34:41:a7:51:bb:02:2c:89:f7:55:8f:e6:55:
                    49:27:4b:e1:20:20:9e:b3:ba:07:e8:77:a8:3a:42:
                    68:9b:f9:41:6b:d1:9c:25:3b:35:48:6c:63:0b:97:
                    ee:a7:ca:04:6f:9d:90:37:05:a9:1e:bd:00:49:16:
                    15:76:2d:5b:b0:f7:f6:35:49:33:17:d1:d8:01:e3:
                    09:00:24:9e:66:87:b7:20:77:f7:aa:5e:bd:ea:d3:
                    40:a9:b4:c6:51:bf:5a:df:78:63:3b:bf:ef:12:54:
                    7c:3d:f2:3d:98:7b:c3:f4:12:c7:9b:4e:97:13:b9:
                    24:67
                Exponent: 65537 (0x10001)
        X509v3 extensions:
            X509v3 Basic Constraints: 
                CA:FALSE
    Signature Algorithm: sha1WithRSAEncryption
         72:17:2a:68:90:6f:70:3c:6c:78:ea:b1:e7:b0:e8:63:81:82:
         21:f9:77:bc:74:35:94:40:34:aa:ca:e2:7d:b7:02:56:83:8b:
         88:f0:2f:f0:4b:39:33:c7:0f:f7:bd:48:b2:1b:72:42:71:2c:
         b5:af:8c:f4:ad:da:82:e2:08:4a:2f:f7:44:1a:79:2c:30:78:
         57:60:c0:25:d2:e9:0b:34:97:f5:ac:26:68:13:12:7e:0e:0c:
         2a:37:7e:f1:62:7b:ca:a6:a2:bb:f0:e2:0d:59:9b:bb:87:cd:
         75:68:ab:75:c5:bb:11:cc:4e:9b:82:7b:91:24:a8:29:61:45:
         8d:b8:87:ac:bc:c4:8b:44:79:5a:68:60:ff:c2:04:9e:52:78:
         dc:c1:7a:c2:fa:98:ac:c0:45:01:fc:d2:a7:98:d1:1e:92:28:
         b5:0d:84:a5:cb:08:82:90:cd:18:a4:6c:89:d3:27:6b:ff:c4:
         8f:6b:49:8a:61:a9:5c:92:54:41:83:d4:51:c9:93:72:b4:5d:
         10:70:26:e5:18:b9:44:0f:5b:6a:f8:58:bd:a0:44:6b:08:44:
         40:82:4f:a9:ee:46:d9:e4:d4:92:88:5e:23:fb:29:99:15:83:
         ae:c4:c4:f7:97:c4:26:0a:db:47:aa:a9:7f:7f:50:24:e0:ab:
         7e:be:94:5b
-----BEGIN CERTIFICATE-----
MIIDczCCAlugAwIBAgICEAAwDQYJKoZIhvcNAQEFBQAwbTELMAkGA1UEBhMCSUQx
FDASBgNVBAgMC0RLSSBKYWthcnRhMRYwFAYDVQQHDA1KYWthcnRhIFRpbXVyMREw
DwYDVQQKDAhDQSBQYWxzdTELMAkGA1UECwwCQ0ExEDAOBgNVBAMMB1Jvb3QgQ0Ew
HhcNMTMwNzMxMDQzODU4WhcNMTQwNzMxMDQzODU4WjB9MRIwEAYDVQQDDAlzaXBz
ZXJ2ZXIxFDASBgNVBAgMC0RLSSBKYWthcnRhMQswCQYDVQQGEwJJRDEiMCAGCSqG
SIb3DQEJARYTc2lwc2VydmVyQHl1aHV1LmNvbTETMBEGA1UECgwKU0lQIFNlcnZl
cjELMAkGA1UECwwCSVQwggEiMA0GCSqGSIb3DQEBAQUAA4IBDwAwggEKAoIBAQCl
tButG3YAjjVC4rWSGRvRsKd7NABrrpjRVN7jylNsgXh1mQNyN39K/34/mpbw2bhW
AoHXBzvxYN0TYPyQgXSSyNwBt0ZFIvD9vNNrQaztqT5AGMd0k+6xZeSMAU7NXHUz
fhP096MxKgSWcke7Vkj2Kjh/IkdX4MmAIbjw5rKebDWwFjU2g02oNEGnUbsCLIn3
VY/mVUknS+EgIJ6zugfod6g6Qmib+UFr0ZwlOzVIbGMLl+6nygRvnZA3BakevQBJ
FhV2LVuw9/Y1STMX0dgB4wkAJJ5mh7cgd/eqXr3q00CptMZRv1rfeGM7v+8SVHw9
8j2Ye8P0EsebTpcTuSRnAgMBAAGjDTALMAkGA1UdEwQCMAAwDQYJKoZIhvcNAQEF
BQADggEBAHIXKmiQb3A8bHjqseew6GOBgiH5d7x0NZRANKrK4n23AlaDi4jwL/BL
OTPHD/e9SLIbckJxLLWvjPSt2oLiCEov90QaeSwweFdgwCXS6Qs0l/WsJmgTEn4O
DCo3fvFie8qmorvw4g1Zm7uHzXVoq3XFuxHMTpuCe5EkqClhRY24h6y8xItEeVpo
YP/CBJ5SeNzBesL6mKzARQH80qeY0R6SKLUNhKXLCIKQzRikbInTJ2v/xI9rSYph
qVySVEGD1FHJk3K0XRBwJuUYuUQPW2r4WL2gRGsIRECCT6nuRtnk1JKIXiP7KZkV
g67ExPeXxCYK20eqqX9/UCTgq36+lFs=
-----END CERTIFICATE-----
