Certificate:
    Data:
        Version: 3 (0x2)
        Serial Number: 4097 (0x1001)
    Signature Algorithm: sha1WithRSAEncryption
        Issuer: C=ID, ST=DKI Jakarta, L=Jakarta Timur, O=CA Palsu, OU=CA, CN=Root CA
        Validity
            Not Before: Jul 31 04:57:48 2013 GMT
            Not After : Jul 31 04:57:48 2014 GMT
        Subject: CN=sipclient, ST=DKI Jakarta, C=ID/emailAddress=client@yuhuu.com, O=IT
        Subject Public Key Info:
            Public Key Algorithm: rsaEncryption
                Public-Key: (2048 bit)
                Modulus:
                    00:c2:aa:54:f6:6d:8f:a5:f6:71:d0:20:34:23:f8:
                    2e:ec:ce:a0:e9:f5:8f:0f:de:2e:c9:4e:56:18:36:
                    eb:60:88:c8:7e:31:b0:d3:5c:f6:21:29:2d:92:71:
                    ac:93:b7:3c:66:fe:c9:7f:58:15:23:77:03:aa:78:
                    8c:4b:31:2b:c5:98:e0:fd:3c:06:cb:db:14:52:e9:
                    fc:89:e5:84:9c:3a:e8:75:aa:cf:07:f8:0e:69:d4:
                    e9:4c:c7:80:bd:7a:1b:bd:fa:95:c8:5a:8b:68:47:
                    0e:ae:2d:60:b5:22:e0:2c:25:87:93:62:12:49:8c:
                    87:fc:74:49:d4:5a:5d:ed:a9:bf:2e:dd:90:f3:a9:
                    e9:16:23:d6:4d:be:a3:37:12:cb:f7:a2:49:35:fc:
                    49:b8:c4:81:26:c7:5f:b1:98:e1:d6:5d:b4:d8:99:
                    65:d2:ec:a0:ad:1b:54:b7:88:2e:44:67:0f:f9:ec:
                    ad:30:06:c4:5d:80:b4:b2:7d:c1:5b:3c:6b:4a:3a:
                    39:6f:a8:2b:6d:8f:1b:ae:98:9d:96:e3:1c:3e:a4:
                    cd:a8:c5:cd:cf:19:a5:ef:4c:b0:41:eb:00:ac:22:
                    a3:f1:8e:2c:e5:4a:72:05:6a:08:92:d8:cf:69:02:
                    bd:21:a4:a3:3b:a2:38:da:d0:ae:f1:fe:ff:c7:d7:
                    88:37
                Exponent: 65537 (0x10001)
        X509v3 extensions:
            X509v3 Basic Constraints: 
                CA:FALSE
    Signature Algorithm: sha1WithRSAEncryption
         10:d7:38:48:e6:5a:1b:ca:57:06:08:3c:91:b3:c6:84:85:1d:
         bf:fa:c5:ce:c1:ee:3d:b5:b8:b5:ca:c4:08:59:68:47:e7:7d:
         8c:82:98:b4:11:32:62:60:17:0b:d8:d2:9f:34:9c:2d:1d:ea:
         16:2a:1b:a5:91:a8:7d:9e:6c:e1:26:54:b8:16:d6:d7:bf:1f:
         4f:fc:cd:16:4a:1e:7c:b7:f6:9a:21:5a:43:6e:e2:e4:14:b1:
         02:63:d2:22:98:a5:01:40:90:6a:c7:46:84:ae:44:09:7b:88:
         98:aa:f9:e3:a3:e8:51:e8:7a:2e:93:6f:6e:66:f2:b6:b8:13:
         8c:66:49:78:8c:21:5f:dd:f1:7f:d8:5e:64:bc:4e:bb:b7:df:
         de:95:c2:99:02:56:f9:c0:b4:43:04:e4:33:d6:09:25:f4:e8:
         09:67:8b:ec:b0:89:52:ad:fe:7e:31:a8:e9:a1:27:06:77:cd:
         d7:80:12:4e:e1:06:7b:0f:52:80:6c:4b:b2:44:ac:fd:2e:59:
         43:fe:d5:3f:26:4e:26:eb:16:ca:1c:94:55:b2:60:fb:1b:81:
         9e:5c:db:74:da:7b:33:cb:eb:10:b6:57:2c:ce:6d:49:95:0a:
         5f:f2:3d:19:c4:8c:6e:4c:94:52:c7:36:fe:e4:d0:ec:ce:ee:
         5e:c7:e1:7d
-----BEGIN CERTIFICATE-----
MIIDWzCCAkOgAwIBAgICEAEwDQYJKoZIhvcNAQEFBQAwbTELMAkGA1UEBhMCSUQx
FDASBgNVBAgMC0RLSSBKYWthcnRhMRYwFAYDVQQHDA1KYWthcnRhIFRpbXVyMREw
DwYDVQQKDAhDQSBQYWxzdTELMAkGA1UECwwCQ0ExEDAOBgNVBAMMB1Jvb3QgQ0Ew
HhcNMTMwNzMxMDQ1NzQ4WhcNMTQwNzMxMDQ1NzQ4WjBlMRIwEAYDVQQDDAlzaXBj
bGllbnQxFDASBgNVBAgMC0RLSSBKYWthcnRhMQswCQYDVQQGEwJJRDEfMB0GCSqG
SIb3DQEJARYQY2xpZW50QHl1aHV1LmNvbTELMAkGA1UECgwCSVQwggEiMA0GCSqG
SIb3DQEBAQUAA4IBDwAwggEKAoIBAQDCqlT2bY+l9nHQIDQj+C7szqDp9Y8P3i7J
TlYYNutgiMh+MbDTXPYhKS2ScayTtzxm/sl/WBUjdwOqeIxLMSvFmOD9PAbL2xRS
6fyJ5YScOuh1qs8H+A5p1OlMx4C9ehu9+pXIWotoRw6uLWC1IuAsJYeTYhJJjIf8
dEnUWl3tqb8u3ZDzqekWI9ZNvqM3Esv3okk1/Em4xIEmx1+xmOHWXbTYmWXS7KCt
G1S3iC5EZw/57K0wBsRdgLSyfcFbPGtKOjlvqCttjxuumJ2W4xw+pM2oxc3PGaXv
TLBB6wCsIqPxjizlSnIFagiS2M9pAr0hpKM7ojja0K7x/v/H14g3AgMBAAGjDTAL
MAkGA1UdEwQCMAAwDQYJKoZIhvcNAQEFBQADggEBABDXOEjmWhvKVwYIPJGzxoSF
Hb/6xc7B7j21uLXKxAhZaEfnfYyCmLQRMmJgFwvY0p80nC0d6hYqG6WRqH2ebOEm
VLgW1te/H0/8zRZKHny39pohWkNu4uQUsQJj0iKYpQFAkGrHRoSuRAl7iJiq+eOj
6FHoei6Tb25m8ra4E4xmSXiMIV/d8X/YXmS8Tru3396VwpkCVvnAtEME5DPWCSX0
6Alni+ywiVKt/n4xqOmhJwZ3zdeAEk7hBnsPUoBsS7JErP0uWUP+1T8mTibrFsoc
lFWyYPsbgZ5c23TaezPL6xC2VyzObUmVCl/yPRnEjG5MlFLHNv7k0OzO7l7H4X0=
-----END CERTIFICATE-----
